; Function Attrs: mustprogress uwtable
define hidden noundef i32 @_ZN11var_counter11get_max_varEP4expr(ptr noundef nonnull align 8 dereferenceable(224) %this, ptr noundef %e) local_unnamed_addr #3 align 2 {
entry:
  %has_var = alloca i8, align 1
  store i8 0, ptr %has_var, align 1
  %m_todo = getelementptr inbounds i8, ptr %this, i64 208
  %0 = load ptr, ptr %m_todo, align 8
  %cmp.i = icmp eq ptr %0, null
  br i1 %cmp.i, label %if.then.i, label %lor.lhs.false.i

lor.lhs.false.i:                                  ; preds = %entry
  %arrayidx.i = getelementptr inbounds i8, ptr %0, i64 -4
  %1 = load i32, ptr %arrayidx.i, align 4
  %arrayidx4.i = getelementptr inbounds i8, ptr %0, i64 -8
  %2 = load i32, ptr %arrayidx4.i, align 4
  %cmp5.i = icmp eq i32 %1, %2
  br i1 %cmp5.i, label %if.then.i, label %_ZN6vectorIP4exprLb0EjE9push_backERKS1_.exit

if.then.i:                                        ; preds = %lor.lhs.false.i, %entry
  tail call void @_ZN6vectorIP4exprLb0EjE13expand_vectorEv(ptr noundef nonnull align 8 dereferenceable(8) %m_todo)
  %.pre.i = load ptr, ptr %m_todo, align 8
  %arrayidx8.phi.trans.insert.i = getelementptr inbounds i8, ptr %.pre.i, i64 -4
  %.pre1.i = load i32, ptr %arrayidx8.phi.trans.insert.i, align 4
  br label %_ZN6vectorIP4exprLb0EjE9push_backERKS1_.exit

_ZN6vectorIP4exprLb0EjE9push_backERKS1_.exit:     ; preds = %lor.lhs.false.i, %if.then.i
  %3 = phi i32 [ %.pre1.i, %if.then.i ], [ %1, %lor.lhs.false.i ]
  %4 = phi ptr [ %.pre.i, %if.then.i ], [ %0, %lor.lhs.false.i ]
  %idx.ext.i = zext i32 %3 to i64
  %add.ptr.i = getelementptr inbounds ptr, ptr %4, i64 %idx.ext.i
  store ptr %e, ptr %add.ptr.i, align 8
  %5 = load ptr, ptr %m_todo, align 8
  %arrayidx10.i = getelementptr inbounds i8, ptr %5, i64 -4
  %6 = load i32, ptr %arrayidx10.i, align 4
  %inc.i = add i32 %6, 1
  store i32 %inc.i, ptr %arrayidx10.i, align 4
  %call2 = call noundef i32 @_ZN11var_counter11get_max_varERb(ptr noundef nonnull align 8 dereferenceable(224) %this, ptr noundef nonnull align 1 dereferenceable(1) %has_var)
  ret i32 %call2
}